; ModuleID = '40/2123.c'
source_filename = "40/2123.c"
target datalayout = "e-m:e-p270:32:32-p271:32:32-p272:64:64-i64:64-f80:128-n8:16:32:64-S128"
target triple = "x86_64-pc-linux-gnu"

@.str = private unnamed_addr constant [5 x i8] c"%lf\0A\00", align 1
@.str.1 = private unnamed_addr constant [4 x i8] c"%lf\00", align 1
@.str.2 = private unnamed_addr constant [14 x i8] c"Invalid input\00", align 1
@.str.3 = private unnamed_addr constant [7 x i8] c"%.4lf\0A\00", align 1

; Function Attrs: noinline nounwind uwtable
define dso_local i32 @main() #0 {
  %1 = alloca i32, align 4
  %2 = alloca double, align 8
  %3 = alloca double, align 8
  %4 = alloca double, align 8
  %5 = alloca double, align 8
  %6 = alloca double, align 8
  %7 = alloca double, align 8
  %8 = alloca double, align 8
  %9 = alloca double, align 8
  %10 = alloca double, align 8
  store i32 0, i32* %1, align 4
  %11 = call i32 (i8*, ...) @__isoc99_scanf(i8* getelementptr inbounds ([5 x i8], [5 x i8]* @.str, i64 0, i64 0), double* %2)
  %12 = call i32 (i8*, ...) @__isoc99_scanf(i8* getelementptr inbounds ([5 x i8], [5 x i8]* @.str, i64 0, i64 0), double* %3)
  %13 = call i32 (i8*, ...) @__isoc99_scanf(i8* getelementptr inbounds ([5 x i8], [5 x i8]* @.str, i64 0, i64 0), double* %4)
  %14 = call i32 (i8*, ...) @__isoc99_scanf(i8* getelementptr inbounds ([5 x i8], [5 x i8]* @.str, i64 0, i64 0), double* %5)
  %15 = call i32 (i8*, ...) @__isoc99_scanf(i8* getelementptr inbounds ([4 x i8], [4 x i8]* @.str.1, i64 0, i64 0), double* %10)
  store double 0x400921FB4D12D84A, double* %9, align 8
  %16 = load double, double* %2, align 8
  %17 = load double, double* %3, align 8
  %18 = fadd double %16, %17
  %19 = load double, double* %4, align 8
  %20 = fadd double %18, %19
  %21 = load double, double* %5, align 8
  %22 = fadd double %20, %21
  %23 = fdiv double %22, 2.000000e+00
  store double %23, double* %7, align 8
  %24 = load double, double* %10, align 8
  %25 = load double, double* %9, align 8
  %26 = fmul double %24, %25
  %27 = fdiv double %26, 1.800000e+02
  store double %27, double* %6, align 8
  %28 = load double, double* %7, align 8
  %29 = load double, double* %2, align 8
  %30 = fsub double %28, %29
  %31 = load double, double* %7, align 8
  %32 = load double, double* %3, align 8
  %33 = fsub double %31, %32
  %34 = fmul double %30, %33
  %35 = load double, double* %7, align 8
  %36 = load double, double* %4, align 8
  %37 = fsub double %35, %36
  %38 = fmul double %34, %37
  %39 = load double, double* %7, align 8
  %40 = load double, double* %5, align 8
  %41 = fsub double %39, %40
  %42 = fmul double %38, %41
  %43 = load double, double* %2, align 8
  %44 = load double, double* %3, align 8
  %45 = fmul double %43, %44
  %46 = load double, double* %4, align 8
  %47 = fmul double %45, %46
  %48 = load double, double* %5, align 8
  %49 = fmul double %47, %48
  %50 = load double, double* %6, align 8
  %51 = fdiv double %50, 2.000000e+00
  %52 = call double @cos(double %51) #3
  %53 = fmul double %49, %52
  %54 = load double, double* %6, align 8
  %55 = fdiv double %54, 2.000000e+00
  %56 = call double @cos(double %55) #3
  %57 = fmul double %53, %56
  %58 = fsub double %42, %57
  store double %58, double* %8, align 8
  %59 = load double, double* %8, align 8
  %60 = fcmp olt double %59, 0.000000e+00
  br i1 %60, label %61, label %63

61:                                               ; preds = %0
  %62 = call i32 (i8*, ...) @printf(i8* getelementptr inbounds ([14 x i8], [14 x i8]* @.str.2, i64 0, i64 0))
  br label %67

63:                                               ; preds = %0
  %64 = load double, double* %8, align 8
  %65 = call double @sqrt(double %64) #3
  %66 = call i32 (i8*, ...) @printf(i8* getelementptr inbounds ([7 x i8], [7 x i8]* @.str.3, i64 0, i64 0), double %65)
  br label %67

67:                                               ; preds = %63, %61
  %68 = load i32, i32* %1, align 4
  ret i32 %68
}

declare dso_local i32 @__isoc99_scanf(i8*, ...) #1

; Function Attrs: nounwind
declare dso_local double @cos(double) #2

declare dso_local i32 @printf(i8*, ...) #1

; Function Attrs: nounwind
declare dso_local double @sqrt(double) #2


!llvm.module.flags = !{!0}
!llvm.ident = !{!1}

!0 = !{i32 1, !"wchar_size", i32 4}
!1 = !{!"clang version 10.0.0-4ubuntu1 "}
